target datalayout = "e-m:e-p270:32:32-p271:32:32-p272:64:64-i64:64-i128:128-f80:128-n8:16:32:64-S128"
target triple = "x86_64-pc-linux-gnu"

%struct.expert_field = type { i32, i32 }

@hf_uftp_ccack = internal global i32 0, align 4
@hf_uftp_ccack_func = internal global i32 0, align 4
@hf_uftp_ccack_hlen = internal global i32 0, align 4
@hf_uftp_ccack_reserved = internal global i32 0, align 4
@ett_uftp_ccack = internal global i32 0, align 4
@ei_uftp_length_invalid = internal global %struct.expert_field zeroinitializer, align 4
@.str.416 = private unnamed_addr constant [19 x i8] c"Invalid length: %d\00", align 1
@.str.417 = private unnamed_addr constant [36 x i8] c"Invalid length, len = %d, hlen = %d\00", align 1
@.str.418 = private unnamed_addr constant [14 x i8] c"%d bytes (%d)\00", align 1

; Function Attrs: null_pointer_is_valid sspstrong uwtable
define internal void @dissect_uftp_ccack(ptr noundef %0, ptr noundef %1, ptr noundef %2) #0 {
  %4 = alloca ptr, align 8
  %5 = alloca ptr, align 8
  %6 = alloca ptr, align 8
  %7 = alloca ptr, align 8
  %8 = alloca ptr, align 8
  %9 = alloca i32, align 4
  %10 = alloca i32, align 4
  %11 = alloca i32, align 4
  %12 = alloca i8, align 1
  %13 = alloca ptr, align 8
  %14 = alloca i32, align 4
  %15 = alloca i32, align 4
  store ptr %0, ptr %4, align 8
  store ptr %1, ptr %5, align 8
  store ptr %2, ptr %6, align 8
  call void @llvm.lifetime.start.p0(i64 8, ptr %7) #6
  store ptr null, ptr %7, align 8
  call void @llvm.lifetime.start.p0(i64 8, ptr %8) #6
  store ptr null, ptr %8, align 8
  call void @llvm.lifetime.start.p0(i64 4, ptr %9) #6
  store i32 0, ptr %9, align 4
  call void @llvm.lifetime.start.p0(i64 4, ptr %10) #6
  call void @llvm.lifetime.start.p0(i64 4, ptr %11) #6
  call void @llvm.lifetime.start.p0(i64 1, ptr %12) #6
  call void @llvm.lifetime.start.p0(i64 8, ptr %13) #6
  %16 = load ptr, ptr %4, align 8
  %17 = call i32 @tvb_reported_length(ptr noundef %16)
  %18 = icmp ult i32 %17, 4
  br i1 %18, label %19, label %27

19:                                               ; preds = %3
  %20 = load ptr, ptr %6, align 8
  %21 = load ptr, ptr %5, align 8
  %22 = load ptr, ptr %4, align 8
  %23 = load i32, ptr %9, align 4
  %24 = load ptr, ptr %4, align 8
  %25 = call i32 @tvb_reported_length(ptr noundef %24)
  %26 = call ptr (ptr, ptr, ptr, ptr, i32, i32, ptr, ...) @proto_tree_add_expert_format(ptr noundef %20, ptr noundef %21, ptr noundef @ei_uftp_length_invalid, ptr noundef %22, i32 noundef %23, i32 noundef -1, ptr noundef @.str.416, i32 noundef %25)
  store i32 1, ptr %14, align 4
  br label %117

27:                                               ; preds = %3
  %28 = load ptr, ptr %4, align 8
  %29 = call zeroext i8 @tvb_get_uint8(ptr noundef %28, i32 noundef 1)
  %30 = zext i8 %29 to i32
  %31 = mul i32 %30, 4
  store i32 %31, ptr %10, align 4
  %32 = load ptr, ptr %4, align 8
  %33 = call i32 @tvb_reported_length(ptr noundef %32)
  %34 = load i32, ptr %10, align 4
  %35 = icmp slt i32 %33, %34
  br i1 %35, label %39, label %36

36:                                               ; preds = %27
  %37 = load i32, ptr %10, align 4
  %38 = icmp slt i32 %37, 4
  br i1 %38, label %39, label %48

39:                                               ; preds = %36, %27
  %40 = load ptr, ptr %6, align 8
  %41 = load ptr, ptr %5, align 8
  %42 = load ptr, ptr %4, align 8
  %43 = load i32, ptr %9, align 4
  %44 = load ptr, ptr %4, align 8
  %45 = call i32 @tvb_reported_length(ptr noundef %44)
  %46 = load i32, ptr %10, align 4
  %47 = call ptr (ptr, ptr, ptr, ptr, i32, i32, ptr, ...) @proto_tree_add_expert_format(ptr noundef %40, ptr noundef %41, ptr noundef @ei_uftp_length_invalid, ptr noundef %42, i32 noundef %43, i32 noundef -1, ptr noundef @.str.417, i32 noundef %45, i32 noundef %46)
  store i32 1, ptr %14, align 4
  br label %117

48:                                               ; preds = %36
  %49 = load ptr, ptr %6, align 8
  %50 = load i32, ptr @hf_uftp_ccack, align 4
  %51 = load ptr, ptr %4, align 8
  %52 = load i32, ptr %9, align 4
  %53 = call ptr @proto_tree_add_item(ptr noundef %49, i32 noundef %50, ptr noundef %51, i32 noundef %52, i32 noundef -1, i32 noundef 0)
  store ptr %53, ptr %7, align 8
  %54 = load ptr, ptr %7, align 8
  %55 = load i32, ptr @ett_uftp_ccack, align 4
  %56 = call ptr @proto_item_add_subtree(ptr noundef %54, i32 noundef %55)
  store ptr %56, ptr %8, align 8
  %57 = load ptr, ptr %8, align 8
  %58 = load i32, ptr @hf_uftp_ccack_func, align 4
  %59 = load ptr, ptr %4, align 8
  %60 = load i32, ptr %9, align 4
  %61 = call ptr @proto_tree_add_item(ptr noundef %57, i32 noundef %58, ptr noundef %59, i32 noundef %60, i32 noundef 1, i32 noundef 0)
  %62 = load i32, ptr %9, align 4
  %63 = add i32 %62, 1
  store i32 %63, ptr %9, align 4
  %64 = load ptr, ptr %8, align 8
  %65 = load i32, ptr @hf_uftp_ccack_hlen, align 4
  %66 = load ptr, ptr %4, align 8
  %67 = load i32, ptr %9, align 4
  %68 = load i32, ptr %10, align 4
  %69 = load i32, ptr %10, align 4
  %70 = load i32, ptr %10, align 4
  %71 = sdiv i32 %70, 4
  %72 = call ptr (ptr, i32, ptr, i32, i32, i32, ptr, ...) @proto_tree_add_uint_format_value(ptr noundef %64, i32 noundef %65, ptr noundef %66, i32 noundef %67, i32 noundef 1, i32 noundef %68, ptr noundef @.str.418, i32 noundef %69, i32 noundef %71)
  %73 = load i32, ptr %9, align 4
  %74 = add i32 %73, 1
  store i32 %74, ptr %9, align 4
  %75 = load ptr, ptr %8, align 8
  %76 = load i32, ptr @hf_uftp_ccack_reserved, align 4
  %77 = load ptr, ptr %4, align 8
  %78 = load i32, ptr %9, align 4
  %79 = call ptr @proto_tree_add_item(ptr noundef %75, i32 noundef %76, ptr noundef %77, i32 noundef %78, i32 noundef 2, i32 noundef 0)
  %80 = load i32, ptr %9, align 4
  %81 = add i32 %80, 2
  store i32 %81, ptr %9, align 4
  %82 = load i32, ptr %10, align 4
  %83 = sub i32 %82, 4
  store i32 %83, ptr %11, align 4
  br label %84

84:                                               ; preds = %115, %48
  %85 = load i32, ptr %11, align 4
  %86 = icmp sgt i32 %85, 0
  br i1 %86, label %87, label %116

87:                                               ; preds = %84
  call void @llvm.lifetime.start.p0(i64 4, ptr %15) #6
  store i32 0, ptr %15, align 4
  %88 = load ptr, ptr %4, align 8
  %89 = load i32, ptr %9, align 4
  %90 = load i32, ptr %11, align 4
  %91 = call ptr @tvb_new_subset_length(ptr noundef %88, i32 noundef %89, i32 noundef %90)
  store ptr %91, ptr %13, align 8
  %92 = load ptr, ptr %4, align 8
  %93 = load i32, ptr %9, align 4
  %94 = call zeroext i8 @tvb_get_uint8(ptr noundef %92, i32 noundef %93)
  store i8 %94, ptr %12, align 1
  %95 = load i8, ptr %12, align 1
  %96 = zext i8 %95 to i32
  switch i32 %96, label %102 [
    i32 3, label %97
  ]

97:                                               ; preds = %87
  %98 = load ptr, ptr %13, align 8
  %99 = load ptr, ptr %5, align 8
  %100 = load ptr, ptr %8, align 8
  %101 = call i32 @dissect_uftp_tfmccack(ptr noundef %98, ptr noundef %99, ptr noundef %100)
  store i32 %101, ptr %15, align 4
  br label %102

102:                                              ; preds = %87, %97
  %103 = load i32, ptr %15, align 4
  %104 = icmp ne i32 %103, 0
  br i1 %104, label %106, label %105

105:                                              ; preds = %102
  store i32 3, ptr %14, align 4
  br label %113

106:                                              ; preds = %102
  %107 = load i32, ptr %15, align 4
  %108 = load i32, ptr %11, align 4
  %109 = sub i32 %108, %107
  store i32 %109, ptr %11, align 4
  %110 = load i32, ptr %15, align 4
  %111 = load i32, ptr %9, align 4
  %112 = add i32 %111, %110
  store i32 %112, ptr %9, align 4
  store i32 0, ptr %14, align 4
  br label %113

113:                                              ; preds = %106, %105
  call void @llvm.lifetime.end.p0(i64 4, ptr %15) #6
  %114 = load i32, ptr %14, align 4
  switch i32 %114, label %120 [
    i32 0, label %115
    i32 3, label %116
  ]

115:                                              ; preds = %113
  br label %84, !llvm.loop !22

116:                                              ; preds = %113, %84
  store i32 0, ptr %14, align 4
  br label %117

117:                                              ; preds = %116, %39, %19
  call void @llvm.lifetime.end.p0(i64 8, ptr %13) #6
  call void @llvm.lifetime.end.p0(i64 1, ptr %12) #6
  call void @llvm.lifetime.end.p0(i64 4, ptr %11) #6
  call void @llvm.lifetime.end.p0(i64 4, ptr %10) #6
  call void @llvm.lifetime.end.p0(i64 4, ptr %9) #6
  call void @llvm.lifetime.end.p0(i64 8, ptr %8) #6
  call void @llvm.lifetime.end.p0(i64 8, ptr %7) #6
  %118 = load i32, ptr %14, align 4
  switch i32 %118, label %120 [
    i32 0, label %119
    i32 1, label %119
  ]

119:                                              ; preds = %117, %117
  ret void

120:                                              ; preds = %117, %113
  unreachable
}