; Function Attrs: null_pointer_is_valid sspstrong uwtable
define internal fastcc void @dissect_uftp_ccack(ptr noundef %0, ptr noundef %1, ptr noundef %2) unnamed_addr #0 {
  %4 = tail call i32 @tvb_reported_length(ptr noundef %0)
  %5 = icmp ult i32 %4, 4
  br i1 %5, label %6, label %9

6:                                                ; preds = %3
  %7 = tail call i32 @tvb_reported_length(ptr noundef %0)
  %8 = tail call ptr (ptr, ptr, ptr, ptr, i32, i32, ptr, ...) @proto_tree_add_expert_format(ptr noundef %2, ptr noundef %1, ptr noundef nonnull @ei_uftp_length_invalid, ptr noundef %0, i32 noundef 0, i32 noundef -1, ptr noundef nonnull @.str.416, i32 noundef %7)
  br label %.thread

9:                                                ; preds = %3
  %10 = tail call zeroext i8 @tvb_get_uint8(ptr noundef %0, i32 noundef 1)
  %11 = zext i8 %10 to i32
  %12 = shl nuw nsw i32 %11, 2
  %13 = tail call i32 @tvb_reported_length(ptr noundef %0)
  %14 = icmp slt i32 %13, %12
  %15 = icmp eq i8 %10, 0
  %or.cond = select i1 %14, i1 true, i1 %15
  br i1 %or.cond, label %16, label %19

16:                                               ; preds = %9
  %17 = tail call i32 @tvb_reported_length(ptr noundef %0)
  %18 = tail call ptr (ptr, ptr, ptr, ptr, i32, i32, ptr, ...) @proto_tree_add_expert_format(ptr noundef %2, ptr noundef %1, ptr noundef nonnull @ei_uftp_length_invalid, ptr noundef %0, i32 noundef 0, i32 noundef -1, ptr noundef nonnull @.str.417, i32 noundef %17, i32 noundef %12)
  br label %.thread

19:                                               ; preds = %9
  %20 = load i32, ptr @hf_uftp_ccack, align 4
  %21 = tail call ptr @proto_tree_add_item(ptr noundef %2, i32 noundef %20, ptr noundef %0, i32 noundef 0, i32 noundef -1, i32 noundef 0)
  %22 = load i32, ptr @ett_uftp_ccack, align 4
  %23 = tail call ptr @proto_item_add_subtree(ptr noundef %21, i32 noundef %22)
  %24 = load i32, ptr @hf_uftp_ccack_func, align 4
  %25 = tail call ptr @proto_tree_add_item(ptr noundef %23, i32 noundef %24, ptr noundef %0, i32 noundef 0, i32 noundef 1, i32 noundef 0)
  %26 = load i32, ptr @hf_uftp_ccack_hlen, align 4
  %27 = tail call ptr (ptr, i32, ptr, i32, i32, i32, ptr, ...) @proto_tree_add_uint_format_value(ptr noundef %23, i32 noundef %26, ptr noundef %0, i32 noundef 1, i32 noundef 1, i32 noundef %12, ptr noundef nonnull @.str.418, i32 noundef %12, i32 noundef %11)
  %28 = load i32, ptr @hf_uftp_ccack_reserved, align 4
  %29 = tail call ptr @proto_tree_add_item(ptr noundef %23, i32 noundef %28, ptr noundef %0, i32 noundef 2, i32 noundef 2, i32 noundef 0)
  %30 = add nsw i32 %12, -4
  br label %31

31:                                               ; preds = %36, %19
  %.054 = phi i32 [ 4, %19 ], [ %39, %36 ]
  %.053 = phi i32 [ %30, %19 ], [ %38, %36 ]
  %32 = icmp sgt i32 %.053, 0
  br i1 %32, label %33, label %.thread

33:                                               ; preds = %31
  %34 = tail call ptr @tvb_new_subset_length(ptr noundef %0, i32 noundef %.054, i32 noundef %.053)
  %35 = tail call zeroext i8 @tvb_get_uint8(ptr noundef %0, i32 noundef %.054)
  %cond = icmp eq i8 %35, 3
  br i1 %cond, label %36, label %.thread

36:                                               ; preds = %33
  %37 = tail call fastcc i32 @dissect_uftp_tfmccack(ptr noundef %34, ptr noundef %1, ptr noundef %23)
  %.not = icmp eq i32 %37, 0
  %38 = sub nsw i32 %.053, %37
  %39 = add i32 %37, %.054
  br i1 %.not, label %.thread, label %31

.thread:                                          ; preds = %33, %36, %31, %16, %6
  ret void
}